target datalayout = "e-m:e-p270:32:32-p271:32:32-p272:64:64-i64:64-i128:128-f80:128-n8:16:32:64-S128"
target triple = "x86_64-pc-linux-gnu"

%"class.boost::urls::detail::path_ref" = type { ptr, ptr, i64, i64, i64 }
%"class.boost::urls::segments_ref" = type { %"class.boost::urls::segments_base", ptr }
%"class.boost::urls::segments_base" = type { %"class.boost::urls::detail::path_ref" }
%"class.boost::urls::segments_base::iterator" = type { %"struct.boost::urls::detail::segments_iter_impl" }
%"struct.boost::urls::detail::segments_iter_impl" = type { [8 x i8], %"class.boost::urls::detail::path_ref", i64, i64, i64, i64, %"class.boost::urls::pct_string_view" }
%"class.boost::urls::pct_string_view" = type { %"class.boost::urls::grammar::string_view_base", i64 }
%"class.boost::urls::grammar::string_view_base" = type { %"class.boost::core::basic_string_view" }
%"class.boost::core::basic_string_view" = type { ptr, i64 }
%"struct.boost::urls::detail::any_segments_iter.base" = type <{ ptr, %"class.boost::core::basic_string_view", %"class.boost::core::basic_string_view", i32, i8 }>
%"struct.boost::urls::detail::segment_iter" = type { %"struct.boost::urls::detail::any_segments_iter.base", i8, [2 x i8] }

; Function Attrs: mustprogress nounwind uwtable
define linkonce_odr hidden void @_ZN5boost4urls6detail17any_segments_iterD2Ev(ptr noundef nonnull align 8 dereferenceable(45) %0) unnamed_addr #2 comdat align 2 {
  %2 = alloca ptr, align 8
  store ptr %0, ptr %2, align 8, !tbaa !3
  ret void
}

; Function Attrs: mustprogress nounwind uwtable
define linkonce_odr hidden void @_ZN5boost4urls13segments_base8iteratorC2ERKNS0_6detail18segments_iter_implE(ptr noundef nonnull align 8 dereferenceable(104) %0, ptr noundef nonnull align 8 dereferenceable(104) %1) unnamed_addr #2 comdat align 2 {
  %3 = alloca ptr, align 8
  %4 = alloca ptr, align 8
  store ptr %0, ptr %3, align 8, !tbaa !3
  store ptr %1, ptr %4, align 8, !tbaa !3
  %5 = load ptr, ptr %3, align 8
  %6 = getelementptr inbounds nuw %"class.boost::urls::segments_base::iterator", ptr %5, i32 0, i32 0
  %7 = load ptr, ptr %4, align 8, !tbaa !3
  call void @llvm.memcpy.p0.p0.i64(ptr align 8 %6, ptr align 8 %7, i64 104, i1 false)
  ret void
}

; Function Attrs: mustprogress uwtable
define void @_ZN5boost4urls12segments_ref7replaceENS0_13segments_base8iteratorES3_NS_4core17basic_string_viewIcEE(ptr dead_on_unwind noalias writable sret(%"class.boost::urls::segments_base::iterator") align 8 %0, ptr noundef nonnull align 8 dereferenceable(48) %1, ptr noundef byval(%"class.boost::urls::segments_base::iterator") align 8 %2, ptr noundef byval(%"class.boost::urls::segments_base::iterator") align 8 %3, ptr %4, i64 %5) #4 align 2 personality ptr @__gxx_personality_v0 {
  %7 = alloca %"class.boost::core::basic_string_view", align 8
  %8 = alloca ptr, align 8
  %9 = alloca %"struct.boost::urls::detail::segments_iter_impl", align 8
  %10 = alloca %"struct.boost::urls::detail::segment_iter", align 8
  %11 = alloca %"class.boost::core::basic_string_view", align 8
  %12 = alloca ptr, align 8
  %13 = alloca i32, align 4
  %14 = getelementptr inbounds nuw { ptr, i64 }, ptr %7, i32 0, i32 0
  store ptr %4, ptr %14, align 8
  %15 = getelementptr inbounds nuw { ptr, i64 }, ptr %7, i32 0, i32 1
  store i64 %5, ptr %15, align 8
  store ptr %1, ptr %8, align 8, !tbaa !3
  %16 = load ptr, ptr %8, align 8
  call void @llvm.lifetime.start.p0(i64 104, ptr %9) #11
  %17 = getelementptr inbounds nuw %"class.boost::urls::segments_ref", ptr %16, i32 0, i32 1
  %18 = load ptr, ptr %17, align 8, !tbaa !7
  %19 = getelementptr inbounds nuw %"class.boost::urls::segments_base::iterator", ptr %2, i32 0, i32 0
  %20 = getelementptr inbounds nuw %"class.boost::urls::segments_base::iterator", ptr %3, i32 0, i32 0
  call void @llvm.lifetime.start.p0(i64 48, ptr %10) #11
  call void @llvm.memcpy.p0.p0.i64(ptr align 8 %11, ptr align 8 %7, i64 16, i1 false), !tbaa.struct !16
  %21 = getelementptr inbounds nuw { ptr, i64 }, ptr %11, i32 0, i32 0
  %22 = load ptr, ptr %21, align 8
  %23 = getelementptr inbounds nuw { ptr, i64 }, ptr %11, i32 0, i32 1
  %24 = load i64, ptr %23, align 8
  call void @_ZN5boost4urls6detail12segment_iterC1ENS_4core17basic_string_viewIcEE(ptr noundef nonnull align 8 dereferenceable(46) %10, ptr %22, i64 %24) #11
  invoke void @_ZN5boost4urls8url_base13edit_segmentsERKNS0_6detail18segments_iter_implES5_ONS2_17any_segments_iterEi(ptr dead_on_unwind writable sret(%"struct.boost::urls::detail::segments_iter_impl") align 8 %9, ptr noundef nonnull align 8 dereferenceable(216) %18, ptr noundef nonnull align 8 dereferenceable(104) %19, ptr noundef nonnull align 8 dereferenceable(104) %20, ptr noundef nonnull align 8 dereferenceable(45) %10, i32 noundef -1)
          to label %25 unwind label %26

25:                                               ; preds = %6
  call void @_ZN5boost4urls13segments_base8iteratorC2ERKNS0_6detail18segments_iter_implE(ptr noundef nonnull align 8 dereferenceable(104) %0, ptr noundef nonnull align 8 dereferenceable(104) %9) #11
  call void @_ZN5boost4urls6detail17any_segments_iterD2Ev(ptr noundef nonnull align 8 dereferenceable(46) %10) #11
  call void @llvm.lifetime.end.p0(i64 48, ptr %10) #11
  call void @llvm.lifetime.end.p0(i64 104, ptr %9) #11
  ret void

26:                                               ; preds = %6
  %27 = landingpad { ptr, i32 }
          cleanup
  %28 = extractvalue { ptr, i32 } %27, 0
  store ptr %28, ptr %12, align 8
  %29 = extractvalue { ptr, i32 } %27, 1
  store i32 %29, ptr %13, align 4
  call void @_ZN5boost4urls6detail17any_segments_iterD2Ev(ptr noundef nonnull align 8 dereferenceable(46) %10) #11
  call void @llvm.lifetime.end.p0(i64 48, ptr %10) #11
  call void @llvm.lifetime.end.p0(i64 104, ptr %9) #11
  br label %30

30:                                               ; preds = %26
  %31 = load ptr, ptr %12, align 8
  %32 = load i32, ptr %13, align 4
  %33 = insertvalue { ptr, i32 } poison, ptr %31, 0
  %34 = insertvalue { ptr, i32 } %33, i32 %32, 1
  resume { ptr, i32 } %34
}